; Function Attrs: mustprogress nofree norecurse nounwind willreturn memory(readwrite, inaccessiblemem: none) uwtable
define internal void @_ZN32pxrInternal_v0_24__pxrReserved__7VtValue13_TypeInfoImplISt10shared_ptrINS_12_GLOBAL__N_120_DispatchingResolver6_CacheEENS_19TfDelegatedCountPtrINS0_8_CountedIS6_EEEENS0_15_RemoteTypeInfoIS6_EEE9_CopyInitERKNSt15aligned_storageILm8ELm8EE4typeERSG_(ptr nocapture noundef nonnull readonly align 8 dereferenceable(8) %0, ptr nocapture noundef nonnull writeonly align 8 dereferenceable(8) %1) #25 align 2 {
  %.val = load ptr, ptr %0, align 8
  store ptr %.val, ptr %1, align 8
  %.not.i.i = icmp eq ptr %.val, null
  br i1 %.not.i.i, label %_ZN32pxrInternal_v0_24__pxrReserved__19TfDelegatedCountPtrINS_7VtValue8_CountedISt10shared_ptrINS_12_GLOBAL__N_120_DispatchingResolver6_CacheEEEEEC2ERKS9_.exit, label %3

3:                                                ; preds = %2
  %4 = getelementptr inbounds nuw i8, ptr %.val, i64 16
  %5 = atomicrmw add ptr %4, i32 1 monotonic, align 4
  br label %_ZN32pxrInternal_v0_24__pxrReserved__19TfDelegatedCountPtrINS_7VtValue8_CountedISt10shared_ptrINS_12_GLOBAL__N_120_DispatchingResolver6_CacheEEEEEC2ERKS9_.exit

_ZN32pxrInternal_v0_24__pxrReserved__19TfDelegatedCountPtrINS_7VtValue8_CountedISt10shared_ptrINS_12_GLOBAL__N_120_DispatchingResolver6_CacheEEEEEC2ERKS9_.exit: ; preds = %2, %3
  ret void
}